(lp0
(dp1
S'info'
p2
(dp3
S'content'
p4
ccopy_reg
_reconstructor
p5
(cmarkdown2
UnicodeWithAttrs
p6
c__builtin__
unicode
p7
V<p><img src="victoria.jpg" alt="Victoria Smus"\u000astyle="float: left; margin: 5px 15px 10px 0;" /></p>\u000a\u000a<p>Pianist and teacher Victoria Smus, holds a Masters degree in Piano\u000aPerformance from the <a href="http://www.conservatory.ru/">St. Petersburg Conservatory of\u000aMusic</a>. She studied under renowned professors Oleg Malov\u000a(piano), Elena Shafran (chamber ensemble) and Sofia Vackman\u000a(accompaniment).</p>\u000a\u000a<p>While still a student at the Conservatory, she became an award winner of\u000athe State Conservatory Brahms Chamber Music Competition. After\u000agraduating, Victoria performed as a collaborative pianist with\u000aviolinists, vocalists and cellists in concert halls of St. Petersburg,\u000aas well as giving solo recitals. Victoria received the Best Accompanist\u000aDiploma in the Crystal Note Violin Competition.</p>\u000a\u000a<p>Victoria has over 25 years of teaching experience. Since her move to\u000aVancouver, Canada in 1990, she has prepared students for LCM and RCM\u000apiano examinations. Victoria\u2019s students excel in music festivals in the\u000aGreater Vancouver area. Many of her students successfully completed the\u000aARCT and LCM diplomas, with some of them choosing music as their\u000aprofession.</p>\u000a\u000a<p>Victoria performs as a concert pianist and also collaborates with other\u000amusicians in chamber music performances and accompaniment.</p>\u000a
p8
tp9
Rp10
sS'permalink'
p11
V/
p12
sS'computed_link'
p13
g12
sS'is_long'
p14
I00
sS'title'
p15
S'Biography'
p16
sS'snip'
p17
g10
sS'verb'
p18
S'Published'
p19
sS'type'
p20
S'index'
p21
sS'slug'
p22
S'biography'
p23
ssS'path'
p24
S'content/biography/index.txt'
p25
sS'modified'
p26
F1358149694.0
sa(dp27
g2
(dp28
g4
g5
(g6
g7
V<p><a href="map.jpg">\u000a<img class="alignleft" src="map.jpg" width="100"/>\u000a</a></p>\u000a\u000a<p>Victoria lives in Richmond, BC, Canada, where she teaches music in her\u000aown private studio. She can be reached at (604) 241-9543, or by email at\u000a<a href="mailto:victoriasmus@gmail.com">victoriasmus@gmail.com</a>.</p>\u000a\u000a<p style="text-align: center">\u000a<img src="studio.jpg" width="350" height="260"\u000a</p>\u000a
p29
tp30
Rp31
sg11
V/contact
p32
sg13
g32
sg14
I00
sg15
S'Contact'
p33
sg17
g31
sg18
g19
sS'type'
p34
S'page'
p35
sg22
S'contact'
p36
ssg24
S'content/contact/index.txt'
p37
sg26
F1358151377.0
sa(dp38
g2
(dp39
g4
g5
(g6
g7
V<p><img src="perform.jpg" class="alignright"></p>\u000a\u000a<h2>May 6th, 2010 (<a href="http://vimeo.com/11754832">video 1</a>, <a href="http://vimeo.com/11733941">video 2</a>, <a href="http://vimeo.com/11727816">video 3</a>)</h2>\u000a\u000a<ul>\u000a<li>S. Prokofiev \u2013 Tales of the Old Grandmother, op. 31</li>\u000a<li>F. Chopin \u2013 Nocturne op. 9</li>\u000a<li>F. Chopin \u2013 Impromptus op. 29, op. 36 and op. 51 and Fantasie-Impromptu, op. 66</li>\u000a<li>F. Chopin \u2013 Ballade no. 3, op. 47 and</li>\u000a<li>A. Scriabin \u2013 Six Preludes, op. 11</li>\u000a</ul>\u000a\u000a<h2>February 8th, 2009 (<a href="http://www.youtube.com/view_play_list?p=A79AC25CCC68C5CA">videos</a>)</h2>\u000a\u000a<ul>\u000a<li>Four Mazurkas, Op. 30 \u2014 Allegretto non tanto, Vivace, Allegro non troppo, Allegretto</li>\u000a<li>Ballade No. 1 in G minor, Op. 23</li>\u000a<li>Nocturne in F major, Op. 15</li>\u000a<li>Ballade No. 2 in F major, Op. 38 at 4:20</li>\u000a<li>Nocturne in C# minor, Op. Posthumous</li>\u000a<li>Ballade No. 3 in Ab major, Op. 47 at 4:00</li>\u000a<li>Four Mazurkas, Op. 41 \u2014 Maestoso, Andantino, Animato, Allegretto</li>\u000a<li>Ballade No. 4 in F minor, Op. 52</li>\u000a</ul>\u000a\u000a<h2>November 4th, 2007 (<a href="http://www.youtube.com/view_play_list?p=AE0DA4D5E1B496BC">videos</a>)</h2>\u000a\u000a<ul>\u000a<li>Three Contradances \u2014 L. van Beethoven</li>\u000a<li>Sonata in G minor, Hob. XVI 44 \u2014 J. Haydn</li>\u000a<li>Visions Fugitives, Op. 22 \u2014 S. Prokofiev</li>\u000a<li>Sonata in Eb major, Op. posth, 122 \u2014 F. Schubert</li>\u000a<li>Impromptu in Bb major, Op. 142, No. 3 \u2014 F. Schubert</li>\u000a</ul>\u000a\u000a<h2>October 12th, 2003</h2>\u000a\u000a<p><strong>An Evening of Chamber Music Dedicated to the 95th Birthday of David Oistrach</strong></p>\u000a\u000a<ul>\u000a<li>Sonata No. 1 for Violin and Piano \u2014 J. S. Bach</li>\u000a<li>Sonata No. 4 for Violin and Piano in A minor, Op. 23 \u2014 L. van Beethoven</li>\u000a<li>Sonata No. 2 for Violin and Piano in A major, Op. 100 \u2014 J. Brahms</li>\u000a<li>Sonata in A major for Violin and Piano \u2014 C. Frank</li>\u000a</ul>\u000a\u000a<p><em>Performers Elena Stepanova, Oleg Stepanov and Victoria Smus</em></p>\u000a\u000a<h2>May 4th, 2003</h2>\u000a\u000a<p><strong>An Evening of Chamber Music</strong></p>\u000a\u000a<ul>\u000a<li>Concerto for Two Violins and Orchestra in D minor BWV1043 \u2014 J. S. Bach</li>\u000a<li>Sonata for Violin and Piano in A minor, Op. 137, No. 2 \u2014 F. Schubert</li>\u000a<li>Sonata for Violin and Piano in A major, Op. 100, No. 2 \u2014 J. Brahms</li>\u000a<li>Ragtime for Two Violins and Piano \u2014 S. Joplin</li>\u000a<li>Smoke Gets in your Eyes \u2014 J. Kern</li>\u000a<li>Souvenier for Two Violins and Piano \u2014 I. Frolov</li>\u000a</ul>\u000a\u000a<p><em>Performers Elena Stepanova, Oleg Stepanov and Victoria Smus</em></p>\u000a\u000a<h2>March 12th, 2000</h2>\u000a\u000a<ul>\u000a<li>Sonata Op. 13 \u2014 L. van Beethoven</li>\u000a<li>Romance in F# major, Op. 28. Arabesque Op. 19. Carnival Jest from Vienna, Op. 26 \u2014 F. Schumann</li>\u000a<li>November 28th, 1999</li>\u000a<li>Sonata Hob. XVI 34, E minor \u2014 J. Haydn</li>\u000a<li>Sonata Hob. XVI 49, Eb major \u2014 J. Haydn</li>\u000a<li>Sonata Op. 110, Ab major \u2014 L. van Beethoven</li>\u000a<li>Four Impromptus Op. 90 \u2014 F. Schubert</li>\u000a</ul>\u000a\u000a<h2>May 23rd, 1998</h2>\u000a\u000a<p><strong>Six Piano Sonatas by W. A. Mozart</strong></p>\u000a\u000a<ul>\u000a<li>Sonata in A major, K331.</li>\u000a<li>Sonata in F major, K332.</li>\u000a<li>Sonata in Bb major, K333.</li>\u000a<li>Sonata in A minor, K310.</li>\u000a<li>Sonata Facile in C major, K545.</li>\u000a<li>Sonata in Bb major K570</li>\u000a</ul>\u000a\u000a<h2>July 6th, 1997 (<a href="http://www.last.fm/music/Victoria+Smus/Recital+at+Tom+Lee+Hall.+July+6%2C+1997">recordings</a>)</h2>\u000a\u000a<ul>\u000a<li>Chromatic Fantasie and Fugue \u2014 J. S. Bach</li>\u000a<li>Sonata in Eb major K282 \u2014 W. A. Mozart</li>\u000a<li>Six Moments Musical, Op. 94 \u2014 F. Schubert</li>\u000a<li>Six Pieces for Piano, Op. 118 \u2014 J. Brahms</li>\u000a<li>Tales of the Old Grandmother, Op. 31 \u2014 S. Prokofiev</li>\u000a</ul>\u000a\u000a<h1>June 29th, 1996</h1>\u000a\u000a<ul>\u000a<li>Fantasia in D minor KV397, Rondo in D major KV 485, Adagio in B minor KV540, Allegro in Bb major KV400 \u2014 W. A. Mozart</li>\u000a<li>Impromptu Op. 142 No. 3 in Bb major, Sonata Op. posth 120, DV664 in A major \u2014 F. Schubert</li>\u000a<li>Fantasia in F minor, Op. 49 \u2014 F. Chopin</li>\u000a<li>Children\u2019s Corner, L\u2019isle Joyese \u2014 C. Debussy</li>\u000a<li>May 19th, 1996</li>\u000a<li>\u201cThe Enchantment of the Past\u201d, Old Russian Songs</li>\u000a</ul>\u000a\u000a<p><em>Performers Svetlana Sosnova, Galina Jitlina and Victoria Smus</em></p>\u000a\u000a<h2>March 11th, 1995</h2>\u000a\u000a<ul>\u000a<li>Du Bist Die Ruh, Auf Den Wasser Zu Singen, Gretchen Am Spinnrade \u2014 F. Schubert</li>\u000a<li>Mondnacht, Fruhlingsnacht, Widmung \u2014 R. Schumann</li>\u000a<li>Fantasiestucke Op. 12 \u2014 R. Schumann</li>\u000a<li>Variationen Uber Ein Thema von Robert Schumann \u2014 J. Brahms</li>\u000a<li>Heimkehr, Allerseeleny, Heimliche Aufforderung, Zueignung \u2014 R. Strauss</li>\u000a<li>Mazurkas Op. 63, No. 2 and 3, Fantasie Impromptu, Etudes Op. 25, No 1 and 2, Ballades No 1 and 4 \u2014 F. Chopin</li>\u000a</ul>\u000a\u000a<p><em>Performers Sharon Wishart and Victoria Smus</em></p>\u000a\u000a<h2>April 15th, 1994</h2>\u000a\u000a<ul>\u000a<li>Carnival Jest from Vienna, Fantastic Pictures Op. 26 \u2014 R. Schumann</li>\u000a<li>Variationen uber ein Thema von Robert Schumann, Op. 9 \u2014 J. Brahms</li>\u000a<li>Visions Fugitives, Op. 22 \u2014 S. Prokofiev</li>\u000a<li>L\u2019isle Joyeuse \u2014 C. Debussy</li>\u000a</ul>\u000a\u000a<h2>April 20th, 1993</h2>\u000a\u000a<ul>\u000a<li>Variations \u201cLison Dormait\u201d KV264 \u2014 W. A. Mozart</li>\u000a<li>Sonatina (Modere, Mouvt de Menuet, Anime) \u2014 M. Ravel</li>\u000a<li>Impromptu Op. 29, Impromptu Op. 36, Impromptu Op. 51, Impromptu Op. 66 \u2014 F. Chopin</li>\u000a<li>Sonate Op. 58 \u2014 F. Chopin</li>\u000a</ul>\u000a\u000a<h2>February 6th, 1993</h2>\u000a\u000a<ul>\u000a<li>Fantastic Pieces, op. 12 \u2014 R. Schumann</li>\u000a<li>Piano Transcription of Schubert Songs (Barcarolle, Spring Hopes, Margerita at the Spinning Wheel, At the Sea, Shelter) \u2014 F. Liszt</li>\u000a<li>Sonata Op. 58 in B minor (Allegro maestoso, Scherzo molto vivace, Largo, Finale: Presto ma non tanto) \u2014 F. Chopin</li>\u000a</ul>\u000a\u000a<h1>February 7th, 1992</h1>\u000a\u000a<ul>\u000a<li>Der Hirt auf dem Felsen for Voice, Clarinet and Piano \u2014 F. Schubert</li>\u000a<li>Seven Songs for Voice and Piano \u2014 S. Rachmaninoff</li>\u000a<li>Trio in A minor for Clarinet, Cello and Piano \u2014 J. Brahms</li>\u000a</ul>\u000a\u000a<p><em>Performers Margherita Noye, Soprano. Wesley Foster, Clarinet. Victoria Smus, Piano. Eugene Osadchy, Cello.</em></p>\u000a
p40
tp41
Rp42
sg11
V/performances
p43
sg13
g43
sg14
I00
sg15
S'Performances'
p44
sg17
g42
sg18
g19
sS'type'
p45
S'page'
p46
sg22
S'performances'
p47
ssg24
S'content/performances/index.txt'
p48
sg26
F1358150861.0
sa(dp49
g2
(dp50
g4
g5
(g6
g7
V<p><img src="oleg-victoria.jpg" class="alignright" width="200px"></p>\u000a\u000a<p>\u201cI always greatly enjoy Victoria Smus\u2019 performances. She is not only a\u000amusician with impeccable taste, but also a pianist possessing a hugely\u000avaried musical palette, able to perform the most challenging technical\u000apieces with ease.</p>\u000a\u000a<p>Regardless of whether Victoria plays Mozart, Schubert, Chopin, Schumann\u000aor Prokofiev, she always establishes a strong heartfelt connection with\u000athe audience. Victoria has a way of inviting the listener to share and\u000aenjoy world-class musical masterpieces. Victoria possesses unique talent\u000aand exceptional charisma which makes each of her performances a concert\u000ato remember.\u201d \u2014 <strong><a href="http://www.conservatory.ru/node/380/">Oleg Malov, Professor of the St. Petersburg\u000aConservatory, Russia, Honoured artist of Russia</a></strong>.</p>\u000a\u000a<hr />\u000a\u000a<p>\u201cOn Feb. 8, 2009 I had the great pleasure of attending an all-Chopin\u000aConcert given by Victoria Smus. Her performances of his Ballades,\u000aMazurkas and Nocturnes were superb \u2013 rich, compelling and to my ears a\u000aheart-felt feast of music by my favourite composer. Bravo Victoria!\u201d \u2014\u000a<strong><a href="http://www.frederickharrismusic.com/FHMCsite/capricorn?para=showPage&amp;docId=authors&amp;section=**">Linda Niamath, Canadian Pianist/Teacher/Composer</a></strong></p>\u000a\u000a<hr />\u000a\u000a<p>\u201cThe moment I began taking lessons with Mrs. Smus I knew I made the\u000aright choice. Not only did she help me advance in my piano skills and\u000atechniques, her music knowledge and experiences has always left me\u000ainspired and motivated to do better lessons after lessons. Through her\u000aguidance, I was able to achieve many awards and gain so much experience\u000afrom recitals, performances, music festivals, and competitions;\u000asomething that I\u2019ve never dream I could achieve on my own.</p>\u000a\u000a<p>Mrs. Smus really cares for all her students from a personal level. She\u000ais honest, kind, and of course, she sees your potential. She dares to\u000apush you to your limit but always in a supportive and encouraging way. I\u000ahave completed 2 music performers\u2019 diplomas and won many music awards\u000awith the help of Mrs. Smus. With her encouragement, I have also become a\u000apiano instructor as my professional career, helping people to be\u000ainspired the way Mrs. Smus inspired me. She has indeed changed me from a\u000apiano player to a performer.\u201d \u2014 <strong>Grace Ng, ARCT, LLCM, BA (psychology),\u000apiano teacher of 22 students, RMTA</strong></p>\u000a\u000a<hr />\u000a\u000a<p>\u201cI was a student of Victoria\u2019s for about 12 years, and with her support\u000aand expertise finished my studies with her with a diploma from the\u000aLondon College of Music. Having known Victoria since I was a child, she\u000ahas instilled in me the value of hard work, and the strength to never\u000agive up. She also taught me how self-discipline and self-motivation are\u000athe keys to achieving my goals. These priceless lessons I not only used\u000ain reaching my musical goals, but they will also allow me to achieve any\u000aother goals I set in my life. Thank you Victoria for everything you have\u000agiven me.\u201d \u2014 <strong>Suzanne Cassinos, Registered Nurse on the Oncology ward at\u000aBC Children\u2019s Hospital</strong></p>\u000a
p51
tp52
Rp53
sg11
V/references
p54
sg13
g54
sg14
I00
sg15
S'References'
p55
sg17
g53
sg18
g19
sS'type'
p56
S'page'
p57
sg22
S'references'
p58
ssg24
S'content/references/index.txt'
p59
sg26
F1358151063.0
sa(dp60
S'info'
p61
(dp62
S'snip'
p63
g5
(g6
g7
V<p><img src="class.jpg" width="400" class="alignright"/></p>\u000a\u000a<ul>\u000a<li>Mila Bobyreva <a href="https://www.youtube.com/results?search_sort=video_date_uploaded&amp;filters=%40victoriasmusstudents&amp;search_query=%22Mila%20Bobyreva%22">videos</a></li>\u000a<li>Arthur Bridson <a href="https://www.youtube.com/results?search_sort=video_date_uploaded&amp;filters=%40victoriasmusstudents&amp;search_query=%22Arthur%20Bridson%22">videos</a></li>\u000a<li>Eleanor Bridson <a href="https://www.youtube.com/results?search_sort=video_date_uploaded&amp;filters=%40victoriasmusstudents&amp;search_query=%22Eleanor%20Bridson%22">videos</a></li>\u000a<li>Elliot Bridson <a href="https://www.youtube.com/results?search_sort=video_date_uploaded&amp;filters=%40victoriasmusstudents&amp;search_query=%22Elliot%20Bridson%22">videos</a></li>\u000a<li>Sebastien Croteau <a href="https://www.youtube.com/results?search_sort=video_date_uploaded&amp;filters=%40victoriasmusstudents&amp;search_query=%22Sebastien%20Croteau%22">videos</a></li>\u000a<li>Renan Dobrer <a href="https://www.youtube.com/results?search_sort=video_date_uploaded&amp;filters=%40victoriasmusstudents&amp;search_query=%22Renan%20Dobrer%22">videos</a></li>\u000a<li>Tal-Claire Dobrer <a href="https://www.youtube.com/results?search_sort=video_date_uploaded&amp;filters=%40victoriasmusstudents&amp;search_query=%22Tal-Claire%20Dobrer%22">videos</a></li>\u000a<li>Alexander Fonarev <a href="https://www.youtube.com/results?search_sort=video_date_uploaded&amp;filters=%40victoriasmusstudents&amp;search_query=%22Alexander%20Fonarev%22">videos</a></li>\u000a<li>Karina Gonchar <a href="https://www.youtube.com/results?search_sort=video_date_uploaded&amp;filters=%40victoriasmusstudents&amp;search_query=%22Karina%20Gonchar%22">videos</a></li>\u000a<li>Matthew Lai <a href="https://www.youtube.com/results?search_sort=video_date_uploaded&amp;filters=%40victoriasmusstudents&amp;search_query=%22Matthew%20Lai%22">videos</a></li>\u000a<li>Raina Liao <a href="https://www.youtube.com/results?search_sort=video_date_uploaded&amp;filters=%40victoriasmusstudents&amp;search_query=%22Raina%20Liao%22">videos</a></li>\u000a<li>Justine Lin <a href="https://www.youtube.com/results?search_sort=video_date_uploaded&amp;filters=%40victoriasmusstudents&amp;search_query=%22Justine%20Lin%22">videos</a></li>\u000a<li>Grace Lokshin <a href="https://www.youtube.com/results?search_sort=video_date_uploaded&amp;filters=%40victoriasmusstudents&amp;search_query=%22Grace%20Lokshin%22">videos</a></li>\u000a<li>Ben Smus <a href="https://www.youtube.com/results?search_sort=video_date_uploaded&amp;filters=%40victoriasmusstudents&amp;search_query=%22Ben%20Smus%22">videos</a></li>\u000a<li>Meg Wang</li>\u000a</ul>\u000a\u000a<h1>Events</h1>\u000a\u000a<h2>BCCM Music Festival, May 2014</h2>\u000a\u000a<p>Congratulations to all participants and gold certificate recipients:</p>\u000a\u000a<ul>\u000a<li>Arthur Bridson</li>\u000a<li>Elliot Bridson</li>\u000a<li>Renan Dobrer</li>\u000a<li>Tal-Claire Dobrer</li>\u000a<li>Matthew Lai, class winner</li>\u000a<li>Raina Liao</li>\u000a<li>Justine Lin, class winner</li>\u000a<li>Grace Lokshin</li>\u000a<li>Ben Smus</li>\u000a<li>Meg Wang, class winner</li>\u000a</ul>\u000a\u000a<h2>Kiwanis Festival, April 2014</h2>\u000a\u000a<ul>\u000a<li>Mila Bobyreva, Concert Group 5, 1st place</li>\u000a<li>Raina Liao, Romantic 9, 1st place and festival award</li>\u000a<li>Meg Wang, Romantic 9, 1st place and scholarship</li>\u000a<li>Meg Wang, Classical 9, 1st place</li>\u000a<li>Tal-Claire Dobrer, Concert Group 8, 2nd place</li>\u000a<li>Raina Liao, Baroque 9, 3rd place</li>\u000a<li>Tal-Claire Dobrer, Multiple Parts 8, 3rd place</li>\u000a<li>Matthew Lai, Concerto Class Under 10, 3rd place</li>\u000a</ul>\u000a\u000a<h2>Student Performers Guild Festival, November 2013</h2>\u000a\u000a<ul>\u000a<li>Tal-Claire Dobrer, Impressionist Composers, 1st place</li>\u000a<li>Alexander Fonarev, Concert Group 10, 1st place</li>\u000a<li>Justine Lin, Twentieth Century Composers 9, 1st place</li>\u000a<li>Grace Lokshin, Classical Composers 9, 1st place</li>\u000a<li>Tal-Claire Dobrer, Concert Group 8, 2nd place</li>\u000a<li>Tal-Claire Dobrer, Baroque Composers 8, 2nd place</li>\u000a<li>Grace Lokshin, Romantic Composers 9, 2nd place</li>\u000a<li>Kristy Yang, Adult Competitive 12, 2nd place</li>\u000a</ul>\u000a\u000a<h2>Richmond Music Festival, November 2013</h2>\u000a\u000a<ul>\u000a<li>Raina Liao, Classical Composers 9, 1st place</li>\u000a<li>Elliot Bridson, Concert Group 2, 2nd place</li>\u000a<li>Renan Dobrer, Concert Group 2, 2nd place (tie with Elliot Bridson)</li>\u000a<li>Tal-Claire Dobrer, Concert Group 8, 2nd place</li>\u000a<li>Raina Liao, Romantic Composers 9, 2nd place</li>\u000a<li>Matthew Lai, Concert Group 6, 2nd place</li>\u000a<li>Matthew Lai, Twentieth Century Composers 7, 3rd place</li>\u000a</ul>\u000a\u000a<h2>BCCM Music Festival, May 2013</h2>\u000a\u000a<ul>\u000a<li>Renan Dobrer, Concert Group 1, class winner</li>\u000a<li>Tal-Claire Dobrer, Concerto class Under 11. class winner</li>\u000a<li>Tal-Claire Dobrer, Baroque 7, class winner</li>\u000a<li>Alexander Fonarev, Concert Group 10, class winner</li>\u000a<li>Justine Lin, Romantic Composers 9 (section 2), class winner</li>\u000a<li>Ben Smus, Romantic Composers 9, (section 1), class winner</li>\u000a</ul>\u000a\u000a<h2>Vancouver Kiwanis Festival, April 2013</h2>\u000a\u000a<ul>\u000a<li>Elliot Bridson, Concert Group 1, 1st place and festival award</li>\u000a<li>Alexander Fonarev, Beethoven 10, 1st place</li>\u000a<li>Matthew Lai, Concert Group 5, 1st place</li>\u000a<li>Rebecca Lin, Concert Group ARCT, 1st place</li>\u000a<li>Grace Lokshin, Classical 9, 1st place</li>\u000a<li>Karina Gonchar, Mozart Sonata 10, 2nd place</li>\u000a<li>Matthew Lai, Romantic Composers 5, 2nd place</li>\u000a<li>Raina Liao, Concert Group 8, 2nd place</li>\u000a<li>Ben Smus, Twentieth Century 7, 2nd place</li>\u000a<li>Mila Bobyreva, Concert Group 3, 3rd place</li>\u000a<li>Tal-Claire Dobrer, Concert Group 7, 3rd place</li>\u000a<li>Sau San Chan, Concert Group ARCT, 3rd place</li>\u000a</ul>\u000a\u000a<h2>Richmond Music Festival, November 2012</h2>\u000a\u000a<ul>\u000a<li>Mila Bobyreva, Concert Group 3, 1st place and festival award</li>\u000a<li>Tal-Claire Dobrer, Concert Group 6, 1st place and festival award</li>\u000a<li>Grace Lokshin, Concert Group 8, 1st place</li>\u000a<li>Mathew Lai, Classical Composers 5, 2nd place</li>\u000a<li>Raina Liao, Concert Group 8, 2nd place</li>\u000a<li>Rebecca Lin, Whole Sonata ARCT, 3rd place</li>\u000a<li>Grace Lokshin, Concerto Under 14, 3rd place</li>\u000a<li>Ben Smus, Baroque 7, 3rd place</li>\u000a</ul>\u000a\u000a<h2>BCCM Music Festival, May 2012</h2>\u000a\u000a<ul>\u000a<li>Ron Lu, Studies ARCT, gold certificate and class winner</li>\u000a<li>Annie Yang, Romantic 8, gold certificate and class winner</li>\u000a<li>Justine Lin, Classical 8, gold certificate</li>\u000a<li>Ron Lu, Bach ARCT, gold certificate</li>\u000a<li>Annie Yang, Baroque 8, gold certificate</li>\u000a<li>Kristy Yang, Adult Class, gold certificate</li>\u000a</ul>\u000a\u000a<h2>Vancouver Kiwanis Festival, April 2012</h2>\u000a\u000a<ul>\u000a<li>Tal Dobrer, Concert Group 5, 1st place</li>\u000a<li>Alexander Fonarev, Chopin 10, 1st place</li>\u000a<li>Raina Liao, Concerto 8 years and under, 1st place</li>\u000a<li>Grace Lokshin, Concert Group 7, 1st place</li>\u000a<li>Alexander Fonarev, Romantic 10, 2nd place</li>\u000a<li>Justine Lin, Romantic 8, 2nd place</li>\u000a<li>Alexander Fonarev, Post-romantic 10, 3rd place</li>\u000a<li>Rebecca Lin, Post-romantic ARCT, 3rd place</li>\u000a</ul>\u000a\u000a<h2>Richmond Music Festival, November 2011</h2>\u000a\u000a<ul>\u000a<li>Mila Bobyreva, Baroque 1, 1st place and festival award</li>\u000a<li>Tal Dobrer, Concert Group 5, 1st place and festival award</li>\u000a<li>Raina Liao, Concert Group 6, 1st place and festival award</li>\u000a<li>Karina Gonchar, Classical 9, 1st place</li>\u000a<li>Ron Lu, Classical ARCT, 1st place</li>\u000a<li>Mila Bobyreva, Own Choice 2, 2nd place</li>\u000a<li>Justine Lin, Concert Group 8, 2nd place</li>\u000a<li>Justine Lin, Romantic 9, 2nd place</li>\u000a<li>Ron Lu, Baroque ARCT, 2nd place</li>\u000a<li>Nika Pereyaslavsky, Own Choice 8, 2nd place</li>\u000a<li>Ben Smus, Classical 7, 2nd place</li>\u000a<li>Mila Bobyreva, Classical 1, 3rd place</li>\u000a<li>Karina Gonchar, Baroque 9, 3rd place</li>\u000a<li>Karina Gonchar, Romantic 9, 3rd place</li>\u000a<li>Raina Liao, Canadian 7, 3rd place</li>\u000a<li>Ron Lu, Romantic ARCT, 3rd place</li>\u000a<li>Nika Pereyaslavsky, Classical 8, 3rd place</li>\u000a<li>Ben Smus, Canadian 8, 3rd place</li>\u000a<li>Sau San Chan, Impressionists ARCT, gold certificate</li>\u000a</ul>\u000a\u000a<h2>BCCM Music Festival, May 2011</h2>\u000a\u000a<ul>\u000a<li>Tal Dobrer, Concert Group 4: class winner</li>\u000a<li>Alexander Fonarev, Bach 9: class winner</li>\u000a<li>Alexander Fonarev, Chopin 9: class winner</li>\u000a<li>Alexander Fonarev, Concerto Intermediate: class winner</li>\u000a<li>Justine Lin, Concert Group 7: class winner and scholarship</li>\u000a<li>Raina Liao, Bach 6: gold certificate</li>\u000a<li>Raina Liao, Concerto Intermediate: gold certificate</li>\u000a<li>Grace Lokshin, Concert Group 7: gold certificate</li>\u000a<li>Ron Lu, Bach ARCT: gold certificate</li>\u000a<li>Ben Smus, Classical 5: gold certificate</li>\u000a<li>Annie Yang, Romantic 7: gold certificate</li>\u000a<li>Richmond Music Festival, November 2010</li>\u000a<li>Justine Lin, Canadian Composers 7: 1st place</li>\u000a<li>Ben Smus, 20th Century 5: 1st place and scholarship</li>\u000a<li>Raina Liao, Baroque 4: 2nd place</li>\u000a<li>Ron Lu, Concert Group 10: 2nd place</li>\u000a<li>Justine Lin, Classical 7: 3rd place</li>\u000a</ul>\u000a\u000a<h2>Student Performers\u2019 Guild Festival, November 2010</h2>\u000a\u000a<ul>\u000a<li>Alexander Fonarev, Classical 9: 1st place</li>\u000a<li>Sebastien Croteau, 20th Century 5: 2nd place</li>\u000a<li>Sebastien Croteau, Own Choice 5: 2nd place</li>\u000a<li>Alexander Fonarev, Baroque 9: 2nd place</li>\u000a<li>Grace Lokshin, Classical 5: 2nd place</li>\u000a<li>Grace Lokshin, Romantic 5: 2nd place</li>\u000a<li>Alexander Fonarev, Romantic 9: 3rd place</li>\u000a<li>Simon Krakovsky, Repertoire 7: 3rd place</li>\u000a</ul>\u000a\u000a<h2>BCCM Music Festival, May 2010</h2>\u000a\u000a<ul>\u000a<li>Alexander Fonarev, Intermediate Concert Group: 1st place and scholarship</li>\u000a<li>Alexander Fonarev, Impressionist Composers Grade 8: 1st place and scholarship</li>\u000a<li>Raina Liao, Concert Group Grade 3: 1st place and gold medal</li>\u000a<li>Grace Lokshin, Concert Group Grade 4: 1st place and gold medal</li>\u000a<li>Ben Smus, Concert Group Grade 5: 1st place and gold medal</li>\u000a<li>Tal Dobrer, Concert Group Grade 3: gold certificate</li>\u000a<li>Ron Lu, Concert Group Grade 10: gold certificate</li>\u000a<li>Vancouver Kiwanis Festival, April 2010</li>\u000a<li>Alexander Fonarev, Concert Group Grade 7: 1st place</li>\u000a<li>Alexander Fonarev, Impressionist Composers: 1st place</li>\u000a<li>Ron Lu, Beethoven Sonatas Grade 10: 1st place</li>\u000a<li>Simon Krakovsky, Romantic Composers Grade 5: 2nd place</li>\u000a<li>Ron Lu, 20th Century Composers Grade 10: 3rd place</li>\u000a</ul>\u000a\u000a<h2>Richmond Music Festival, November 2009</h2>\u000a\u000a<ul>\u000a<li>Alexander Fonarev, Own Choice Grade 7: 1st place</li>\u000a<li>Alexander Fonarev, Baroque Grade 7: 2nd place</li>\u000a<li>Alexander Fonarev, 20th Century Composers Grade 7: 2nd place</li>\u000a<li>Simon Krakovsky, Own Choice Grade 5: 2nd place</li>\u000a<li>Grace Lokshin, Baroque Grade 5: 3rd place</li>\u000a<li>Grace Lokshin, Own Choice Grade 5: 3rd place</li>\u000a<li>Sebastien Croteau, Own Choice Grade 4: gold certificate</li>\u000a<li>Tal Dobrer, Own Choice Grade 3: gold certificate</li>\u000a<li>Ben Smus, Own Choice Grade 4: gold certificate</li>\u000a<li>Ben Smus, Classical Grade 4: gold certificate</li>\u000a</ul>\u000a\u000a<h2>Vancouver Kiwanis Festival, April 2009</h2>\u000a\u000a<ul>\u000a<li>Tal-Claire Dobrer, Concert Group Grade 1: 1st place and gold medal</li>\u000a<li>Karina Gonchar, Concert Group Grade 7: 2nd place</li>\u000a<li>Grace Lokshin, Concert Group Grade 2: 3rd place</li>\u000a</ul>\u000a\u000a<h2>Richmond Music Festival, November 2008</h2>\u000a\u000a<ul>\u000a<li>Nika Pereyeslavsky, Classical Grade 6: 1st place</li>\u000a<li>Nika Pereyeslavsky, Own Choice Grade 6: 2nd place</li>\u000a<li>Ben Smus, Own Choice Grade 2: 2nd place</li>\u000a</ul>\u000a
p64
tp65
Rp66
sS'permalink'
p67
V/current-students
p68
sS'description'
p69
NsS'is_long'
p70
I00
sS'title'
p71
VCurrent Students
p72
sS'summary'
p73
V<img src="class.
p74
sS'content'
p75
g66
sS'verb'
p76
S'Published'
p77
sS'type'
p78
S'page'
p79
sS'slug'
p80
S'current-students'
p81
sS'computed_link'
p82
g68
ssS'path'
p83
S'content/current-students/index.txt'
p84
sS'modified'
p85
F1404848138.0
sa(dp86
S'info'
p87
(dp88
S'content'
p89
g5
(g6
g7
V<h2>ARCT, ALCM and LLCM Diplomas</h2>\u000a\u000a<p><img src="1997.jpg" class="alignright"/></p>\u000a\u000a<p>Many of Victoria\u2019s students have finished Royal Conservatory and London\u000aCollege curricula, achieving ARCT (Associate of the Royal Conservatory\u000aof Toronto), ALCM (Associate of the London College of Music) and LLCM\u000a(Licentiate of the London College of Music), including:</p>\u000a\u000a<ul>\u000a<li>Suzanne Cassinos, ALCM in piano performance</li>\u000a<li>Victoria Chan, ARCT in piano performance</li>\u000a<li>Rachel Cheng, ARCT in piano performance</li>\u000a<li>Vivian Ho, ARCT in piano performance</li>\u000a<li>Elaine Kwon, ARCT in piano performance</li>\u000a<li>Christine Lin, ARCT in piano performance</li>\u000a<li>Rebecca Lin, ARCT in piano performance <a href="https://www.youtube.com/results?search_sort=video_date_uploaded&amp;filters=%40victoriasmusstudents&amp;search_query=%22Rebecca%20Lin%22">videos</a></li>\u000a<li>Ron Lu, ARCT in piano performance <a href="https://www.youtube.com/results?search_sort=video_date_uploaded&amp;filters=%40victoriasmusstudents&amp;search_query=%22Ron%20Lu%22">videos</a></li>\u000a<li>Rockson Man, ARCT in piano performance</li>\u000a<li>Grace Ng, ARCT and LLCM in piano performance\u000a<img src="1996.jpg" class="alignright"/></li>\u000a<li>Cindy Ong, LLCM in piano performance</li>\u000a<li>Jennifer Wu, ARCT in piano performance <a href="https://www.youtube.com/results?search_sort=video_date_uploaded&amp;filters=%40victoriasmusstudents&amp;search_query=%22Jennifer%20Wu%22">videos</a></li>\u000a<li>Kristy Yang, ARCT in piano performance <a href="https://www.youtube.com/results?search_sort=video_date_uploaded&amp;filters=%40victoriasmusstudents&amp;search_query=%22Kristy%20Yang%22">videos</a></li>\u000a<li>Esther Yip, ARCT in piano performance</li>\u000a<li>Lisa Zhang, ARCT in piano performance</li>\u000a</ul>\u000a\u000a<h2>Grade 10 RCM and Grade 8 LCM</h2>\u000a\u000a<ul>\u000a<li>Connie Au-Yeung, RCM</li>\u000a<li>Stephanie Baba, RCM</li>\u000a<li>Camillia Chan, RCM</li>\u000a<li>Sau San Chan, RCM</li>\u000a<li>Maggie Chan, RCM</li>\u000a<li>Catherine Chan, RCM</li>\u000a<li>Isaac Elias, LCM</li>\u000a<li>Liora Gonchar, RCM [video]</li>\u000a<li>Alexis Mauricio, RCM</li>\u000a<li>Boris Smus, RCM\u000a<img src="1995.jpg" class="alignright"/></li>\u000a<li>Jasmine Tai, RCM</li>\u000a<li>Sally Tejuco, LCM (adult student)</li>\u000a<li>Henry Tsin, RCM</li>\u000a<li>Edwin Wong, RCM</li>\u000a<li>Kristy Yang, RCM [video]</li>\u000a<li>Theresa Yip, RCM</li>\u000a</ul>\u000a\u000a<h2>Other Students</h2>\u000a\u000a<ul>\u000a<li>Sueda Akkor (adult student)</li>\u000a<li>Naoko Asana</li>\u000a<li>Charissa Beaudry</li>\u000a<li>Shaylene Beaudry\u000a<img src="1994.jpg" class="alignright"/></li>\u000a<li>Catherine Bi</li>\u000a<li>Si Brown (adult student)</li>\u000a<li>Alicia Nicola Carpenter</li>\u000a<li>Maria Amparo de Castro</li>\u000a<li>Franceska Cavaletti</li>\u000a<li>Joyce Cheng</li>\u000a<li>Christy-Anna Chung</li>\u000a<li>Brad Cousineau (adult student)</li>\u000a<li>Adam Dobrer <a href="http://www.youtube.com/watch?v=hhAQ1fscXz0">videos</a></li>\u000a<li>Peter Doudkine</li>\u000a<li>Natalie Eldor</li>\u000a<li>Jason Fan</li>\u000a<li>Raymond Hollands (adult student)</li>\u000a<li>Stephanie Hsieh\u000a<img src="1993.jpg" class="alignright"/></li>\u000a<li>Garrick Huang</li>\u000a<li>Connie Hui</li>\u000a<li>Katia Jitlina</li>\u000a<li>Simon Krakovsky <a href="https://www.youtube.com/results?search_sort=video_date_uploaded&amp;filters=%40victoriasmusstudents&amp;search_query=%22Simon%20Krakovsky%22">videos</a></li>\u000a<li>Mourene Lam (adult student)</li>\u000a<li>Iris Lin</li>\u000a<li>Eric Lin</li>\u000a<li>Jeffrey Lin</li>\u000a<li>Maria Markov</li>\u000a<li>Winky Ng</li>\u000a<li>Nika Pereyaslavsky <a href="https://www.youtube.com/results?search_sort=video_date_uploaded&amp;filters=%40victoriasmusstudents&amp;search_query=%22Nika%20Pereyaslavsky%22">videos</a></li>\u000a<li>Anna Prokofieva</li>\u000a<li>Rachel Ptashny</li>\u000a<li>Victor Shmulevich</li>\u000a<li>William Shu</li>\u000a<li>Kevin Shu</li>\u000a<li>Danika Shtukin</li>\u000a<li>Wendy Tsin</li>\u000a<li>Hiroko Turnbull (adult student)</li>\u000a<li>Miles Wan</li>\u000a<li>Sebastian Wan</li>\u000a<li>Cynthia Weizmann</li>\u000a<li>Jonothan Weizmann</li>\u000a<li>Annie Yang <a href="https://www.youtube.com/results?search_sort=video_date_uploaded&amp;filters=%40victoriasmusstudents&amp;search_query=%22Annie%20Yang%22">videos</a></li>\u000a</ul>\u000a
p90
tp91
Rp92
sS'permalink'
p93
V/former-students
p94
sS'description'
p95
NsS'is_long'
p96
I00
sS'title'
p97
VFormer Students
p98
sS'summary'
p99
V## ARCT, ALCM and LLCM Diplomas\u000a\u000a<img src="1997.
p100
sS'snip'
p101
g92
sS'verb'
p102
S'Published'
p103
sS'type'
p104
S'page'
p105
sS'slug'
p106
S'former-students'
p107
sS'computed_link'
p108
g94
ssS'path'
p109
S'content/former-students/index.txt'
p110
sS'modified'
p111
F1404849053.0
sa.